; Function Attrs: mustprogress nofree norecurse nosync nounwind willreturn memory(read, inaccessiblemem: none) uwtable
define ptr @If_LibBoxReadBox(ptr noundef readonly captures(none) %0, i32 noundef %1) local_unnamed_addr #6 {
  %3 = getelementptr inbounds nuw i8, ptr %0, i64 8
  %4 = load ptr, ptr %3, align 8, !tbaa !22
  %5 = getelementptr i8, ptr %4, i64 8
  %.val = load ptr, ptr %5, align 8, !tbaa !21
  %6 = sext i32 %1 to i64
  %7 = getelementptr inbounds ptr, ptr %.val, i64 %6
  %8 = load ptr, ptr %7, align 8, !tbaa !25
  ret ptr %8
}